target datalayout = "e-m:e-p270:32:32-p271:32:32-p272:64:64-i64:64-i128:128-f80:128-n8:16:32:64-S128"
target triple = "x86_64-pc-linux-gnu"

%struct.ExpandedRange = type { i64, i64, i8 }
%struct.compare_context = type { ptr, i32 }
%struct.DistanceValue = type { i32, double }

; Function Attrs: inlinehint nounwind uwtable
define internal zeroext i1 @DatumGetBool(i64 noundef %0) #3 {
  %2 = alloca i64, align 8
  store i64 %0, ptr %2, align 8
  %3 = load i64, ptr %2, align 8
  %4 = icmp ne i64 %3, 0
  ret i1 %4
}

; Function Attrs: nounwind uwtable
define internal i32 @compare_values(ptr noundef %0, ptr noundef %1, ptr noundef %2) #0 {
  %4 = alloca i32, align 4
  %5 = alloca ptr, align 8
  %6 = alloca ptr, align 8
  %7 = alloca ptr, align 8
  %8 = alloca ptr, align 8
  %9 = alloca ptr, align 8
  %10 = alloca i64, align 8
  %11 = alloca ptr, align 8
  %12 = alloca i32, align 4
  store ptr %0, ptr %5, align 8
  store ptr %1, ptr %6, align 8
  store ptr %2, ptr %7, align 8
  call void @llvm.lifetime.start.p0(i64 8, ptr %8) #8
  %13 = load ptr, ptr %5, align 8
  store ptr %13, ptr %8, align 8
  call void @llvm.lifetime.start.p0(i64 8, ptr %9) #8
  %14 = load ptr, ptr %6, align 8
  store ptr %14, ptr %9, align 8
  call void @llvm.lifetime.start.p0(i64 8, ptr %10) #8
  call void @llvm.lifetime.start.p0(i64 8, ptr %11) #8
  %15 = load ptr, ptr %7, align 8
  store ptr %15, ptr %11, align 8
  %16 = load ptr, ptr %11, align 8
  %17 = getelementptr inbounds nuw %struct.compare_context, ptr %16, i32 0, i32 0
  %18 = load ptr, ptr %17, align 8
  %19 = load ptr, ptr %11, align 8
  %20 = getelementptr inbounds nuw %struct.compare_context, ptr %19, i32 0, i32 1
  %21 = load i32, ptr %20, align 8
  %22 = load ptr, ptr %8, align 8
  %23 = load i64, ptr %22, align 8
  %24 = load ptr, ptr %9, align 8
  %25 = load i64, ptr %24, align 8
  %26 = call i64 @FunctionCall2Coll(ptr noundef %18, i32 noundef %21, i64 noundef %23, i64 noundef %25)
  store i64 %26, ptr %10, align 8
  %27 = load i64, ptr %10, align 8
  %28 = call zeroext i1 @DatumGetBool(i64 noundef %27)
  br i1 %28, label %29, label %30

29:                                               ; preds = %3
  store i32 -1, ptr %4, align 4
  store i32 1, ptr %12, align 4
  br label %46

30:                                               ; preds = %3
  %31 = load ptr, ptr %11, align 8
  %32 = getelementptr inbounds nuw %struct.compare_context, ptr %31, i32 0, i32 0
  %33 = load ptr, ptr %32, align 8
  %34 = load ptr, ptr %11, align 8
  %35 = getelementptr inbounds nuw %struct.compare_context, ptr %34, i32 0, i32 1
  %36 = load i32, ptr %35, align 8
  %37 = load ptr, ptr %9, align 8
  %38 = load i64, ptr %37, align 8
  %39 = load ptr, ptr %8, align 8
  %40 = load i64, ptr %39, align 8
  %41 = call i64 @FunctionCall2Coll(ptr noundef %33, i32 noundef %36, i64 noundef %38, i64 noundef %40)
  store i64 %41, ptr %10, align 8
  %42 = load i64, ptr %10, align 8
  %43 = call zeroext i1 @DatumGetBool(i64 noundef %42)
  br i1 %43, label %44, label %45

44:                                               ; preds = %30
  store i32 1, ptr %4, align 4
  store i32 1, ptr %12, align 4
  br label %46

45:                                               ; preds = %30
  store i32 0, ptr %4, align 4
  store i32 1, ptr %12, align 4
  br label %46

46:                                               ; preds = %45, %44, %29
  call void @llvm.lifetime.end.p0(i64 8, ptr %11) #8
  call void @llvm.lifetime.end.p0(i64 8, ptr %10) #8
  call void @llvm.lifetime.end.p0(i64 8, ptr %9) #8
  call void @llvm.lifetime.end.p0(i64 8, ptr %8) #8
  %47 = load i32, ptr %4, align 4
  ret i32 %47
}

; Function Attrs: nounwind uwtable
define internal i32 @reduce_expanded_ranges(ptr noundef %0, i32 noundef %1, ptr noundef %2, i32 noundef %3, ptr noundef %4, i32 noundef %5) #0 {
  %7 = alloca i32, align 4
  %8 = alloca ptr, align 8
  %9 = alloca i32, align 4
  %10 = alloca ptr, align 8
  %11 = alloca i32, align 4
  %12 = alloca ptr, align 8
  %13 = alloca i32, align 4
  %14 = alloca i32, align 4
  %15 = alloca i32, align 4
  %16 = alloca ptr, align 8
  %17 = alloca %struct.compare_context, align 8
  %18 = alloca i32, align 4
  %19 = alloca i32, align 4
  %20 = alloca i32, align 4
  %21 = alloca i32, align 4
  store ptr %0, ptr %8, align 8
  store i32 %1, ptr %9, align 4
  store ptr %2, ptr %10, align 8
  store i32 %3, ptr %11, align 4
  store ptr %4, ptr %12, align 8
  store i32 %5, ptr %13, align 4
  call void @llvm.lifetime.start.p0(i64 4, ptr %14) #8
  call void @llvm.lifetime.start.p0(i64 4, ptr %15) #8
  call void @llvm.lifetime.start.p0(i64 8, ptr %16) #8
  call void @llvm.lifetime.start.p0(i64 16, ptr %17) #8
  call void @llvm.lifetime.start.p0(i64 4, ptr %18) #8
  %22 = load i32, ptr %9, align 4
  %23 = sub i32 %22, 1
  store i32 %23, ptr %18, align 4
  call void @llvm.lifetime.start.p0(i64 4, ptr %19) #8
  %24 = load i32, ptr %11, align 4
  %25 = sdiv i32 %24, 2
  %26 = sub i32 %25, 1
  store i32 %26, ptr %19, align 4
  %27 = load i32, ptr %19, align 4
  %28 = load i32, ptr %18, align 4
  %29 = icmp sge i32 %27, %28
  br i1 %29, label %30, label %32

30:                                               ; preds = %6
  %31 = load i32, ptr %9, align 4
  store i32 %31, ptr %7, align 4
  store i32 1, ptr %20, align 4
  br label %157

32:                                               ; preds = %6
  %33 = load i32, ptr %13, align 4
  %34 = getelementptr inbounds nuw %struct.compare_context, ptr %17, i32 0, i32 1
  store i32 %33, ptr %34, align 8
  %35 = load ptr, ptr %12, align 8
  %36 = getelementptr inbounds nuw %struct.compare_context, ptr %17, i32 0, i32 0
  store ptr %35, ptr %36, align 8
  store i32 0, ptr %15, align 4
  %37 = load i32, ptr %11, align 4
  %38 = sext i32 %37 to i64
  %39 = mul i64 8, %38
  %40 = call ptr @palloc(i64 noundef %39)
  store ptr %40, ptr %16, align 8
  %41 = load ptr, ptr %8, align 8
  %42 = getelementptr inbounds %struct.ExpandedRange, ptr %41, i64 0
  %43 = getelementptr inbounds nuw %struct.ExpandedRange, ptr %42, i32 0, i32 0
  %44 = load i64, ptr %43, align 8
  %45 = load ptr, ptr %16, align 8
  %46 = load i32, ptr %15, align 4
  %47 = add i32 %46, 1
  store i32 %47, ptr %15, align 4
  %48 = sext i32 %46 to i64
  %49 = getelementptr inbounds i64, ptr %45, i64 %48
  store i64 %44, ptr %49, align 8
  %50 = load ptr, ptr %8, align 8
  %51 = load i32, ptr %9, align 4
  %52 = sub i32 %51, 1
  %53 = sext i32 %52 to i64
  %54 = getelementptr inbounds %struct.ExpandedRange, ptr %50, i64 %53
  %55 = getelementptr inbounds nuw %struct.ExpandedRange, ptr %54, i32 0, i32 1
  %56 = load i64, ptr %55, align 8
  %57 = load ptr, ptr %16, align 8
  %58 = load i32, ptr %15, align 4
  %59 = add i32 %58, 1
  store i32 %59, ptr %15, align 4
  %60 = sext i32 %58 to i64
  %61 = getelementptr inbounds i64, ptr %57, i64 %60
  store i64 %56, ptr %61, align 8
  store i32 0, ptr %14, align 4
  br label %62

62:                                               ; preds = %96, %32
  %63 = load i32, ptr %14, align 4
  %64 = load i32, ptr %19, align 4
  %65 = icmp slt i32 %63, %64
  br i1 %65, label %66, label %99

66:                                               ; preds = %62
  call void @llvm.lifetime.start.p0(i64 4, ptr %21) #8
  %67 = load ptr, ptr %10, align 8
  %68 = load i32, ptr %14, align 4
  %69 = sext i32 %68 to i64
  %70 = getelementptr inbounds %struct.DistanceValue, ptr %67, i64 %69
  %71 = getelementptr inbounds nuw %struct.DistanceValue, ptr %70, i32 0, i32 0
  %72 = load i32, ptr %71, align 8
  store i32 %72, ptr %21, align 4
  %73 = load ptr, ptr %8, align 8
  %74 = load i32, ptr %21, align 4
  %75 = sext i32 %74 to i64
  %76 = getelementptr inbounds %struct.ExpandedRange, ptr %73, i64 %75
  %77 = getelementptr inbounds nuw %struct.ExpandedRange, ptr %76, i32 0, i32 1
  %78 = load i64, ptr %77, align 8
  %79 = load ptr, ptr %16, align 8
  %80 = load i32, ptr %15, align 4
  %81 = add i32 %80, 1
  store i32 %81, ptr %15, align 4
  %82 = sext i32 %80 to i64
  %83 = getelementptr inbounds i64, ptr %79, i64 %82
  store i64 %78, ptr %83, align 8
  %84 = load ptr, ptr %8, align 8
  %85 = load i32, ptr %21, align 4
  %86 = add i32 %85, 1
  %87 = sext i32 %86 to i64
  %88 = getelementptr inbounds %struct.ExpandedRange, ptr %84, i64 %87
  %89 = getelementptr inbounds nuw %struct.ExpandedRange, ptr %88, i32 0, i32 0
  %90 = load i64, ptr %89, align 8
  %91 = load ptr, ptr %16, align 8
  %92 = load i32, ptr %15, align 4
  %93 = add i32 %92, 1
  store i32 %93, ptr %15, align 4
  %94 = sext i32 %92 to i64
  %95 = getelementptr inbounds i64, ptr %91, i64 %94
  store i64 %90, ptr %95, align 8
  call void @llvm.lifetime.end.p0(i64 4, ptr %21) #8
  br label %96

96:                                               ; preds = %66
  %97 = load i32, ptr %14, align 4
  %98 = add i32 %97, 1
  store i32 %98, ptr %14, align 4
  br label %62, !llvm.loop !22

99:                                               ; preds = %62
  %100 = load ptr, ptr %16, align 8
  %101 = load i32, ptr %15, align 4
  %102 = sext i32 %101 to i64
  call void @qsort_arg(ptr noundef %100, i64 noundef %102, i64 noundef 8, ptr noundef @compare_values, ptr noundef %17)
  store i32 0, ptr %14, align 4
  br label %103

103:                                              ; preds = %151, %99
  %104 = load i32, ptr %14, align 4
  %105 = load i32, ptr %15, align 4
  %106 = sdiv i32 %105, 2
  %107 = icmp slt i32 %104, %106
  br i1 %107, label %108, label %154

108:                                              ; preds = %103
  %109 = load ptr, ptr %16, align 8
  %110 = load i32, ptr %14, align 4
  %111 = mul i32 2, %110
  %112 = sext i32 %111 to i64
  %113 = getelementptr inbounds i64, ptr %109, i64 %112
  %114 = load i64, ptr %113, align 8
  %115 = load ptr, ptr %8, align 8
  %116 = load i32, ptr %14, align 4
  %117 = sext i32 %116 to i64
  %118 = getelementptr inbounds %struct.ExpandedRange, ptr %115, i64 %117
  %119 = getelementptr inbounds nuw %struct.ExpandedRange, ptr %118, i32 0, i32 0
  store i64 %114, ptr %119, align 8
  %120 = load ptr, ptr %16, align 8
  %121 = load i32, ptr %14, align 4
  %122 = mul i32 2, %121
  %123 = add i32 %122, 1
  %124 = sext i32 %123 to i64
  %125 = getelementptr inbounds i64, ptr %120, i64 %124
  %126 = load i64, ptr %125, align 8
  %127 = load ptr, ptr %8, align 8
  %128 = load i32, ptr %14, align 4
  %129 = sext i32 %128 to i64
  %130 = getelementptr inbounds %struct.ExpandedRange, ptr %127, i64 %129
  %131 = getelementptr inbounds nuw %struct.ExpandedRange, ptr %130, i32 0, i32 1
  store i64 %126, ptr %131, align 8
  %132 = load ptr, ptr %16, align 8
  %133 = load i32, ptr %14, align 4
  %134 = mul i32 2, %133
  %135 = sext i32 %134 to i64
  %136 = getelementptr inbounds i64, ptr %132, i64 %135
  %137 = load ptr, ptr %16, align 8
  %138 = load i32, ptr %14, align 4
  %139 = mul i32 2, %138
  %140 = add i32 %139, 1
  %141 = sext i32 %140 to i64
  %142 = getelementptr inbounds i64, ptr %137, i64 %141
  %143 = call i32 @compare_values(ptr noundef %136, ptr noundef %142, ptr noundef %17)
  %144 = icmp eq i32 %143, 0
  %145 = load ptr, ptr %8, align 8
  %146 = load i32, ptr %14, align 4
  %147 = sext i32 %146 to i64
  %148 = getelementptr inbounds %struct.ExpandedRange, ptr %145, i64 %147
  %149 = getelementptr inbounds nuw %struct.ExpandedRange, ptr %148, i32 0, i32 2
  %150 = zext i1 %144 to i8
  store i8 %150, ptr %149, align 8
  br label %151

151:                                              ; preds = %108
  %152 = load i32, ptr %14, align 4
  %153 = add i32 %152, 1
  store i32 %153, ptr %14, align 4
  br label %103, !llvm.loop !23

154:                                              ; preds = %103
  %155 = load i32, ptr %15, align 4
  %156 = sdiv i32 %155, 2
  store i32 %156, ptr %7, align 4
  store i32 1, ptr %20, align 4
  br label %157

157:                                              ; preds = %154, %30
  call void @llvm.lifetime.end.p0(i64 4, ptr %19) #8
  call void @llvm.lifetime.end.p0(i64 4, ptr %18) #8
  call void @llvm.lifetime.end.p0(i64 16, ptr %17) #8
  call void @llvm.lifetime.end.p0(i64 8, ptr %16) #8
  call void @llvm.lifetime.end.p0(i64 4, ptr %15) #8
  call void @llvm.lifetime.end.p0(i64 4, ptr %14) #8
  %158 = load i32, ptr %7, align 4
  ret i32 %158
}