; Function Attrs: nounwind uwtable
define internal fastcc range(i32 -2147483647, 1073741824) i32 @reduce_expanded_ranges(ptr noundef captures(none) %0, i32 noundef %1, ptr noundef readonly captures(none) %2, i32 noundef %3, ptr noundef %4, i32 noundef %5) unnamed_addr #0 {
  %7 = alloca %struct.compare_context, align 8
  call void @llvm.lifetime.start.p0(i64 16, ptr nonnull %7) #12
  %8 = add i32 %1, -1
  %9 = sdiv i32 %3, 2
  %.not.not = icmp sgt i32 %9, %8
  br i1 %.not.not, label %.loopexit, label %10

10:                                               ; preds = %6
  %11 = getelementptr inbounds nuw i8, ptr %7, i64 8
  store i32 %5, ptr %11, align 8
  store ptr %4, ptr %7, align 8
  %12 = sext i32 %3 to i64
  %13 = shl nsw i64 %12, 3
  %14 = tail call ptr @palloc(i64 noundef %13) #12
  %15 = load i64, ptr %0, align 8
  store i64 %15, ptr %14, align 8
  %16 = sext i32 %8 to i64
  %17 = getelementptr inbounds %struct.ExpandedRange, ptr %0, i64 %16, i32 1
  %18 = load i64, ptr %17, align 8
  %19 = getelementptr inbounds nuw i8, ptr %14, i64 8
  store i64 %18, ptr %19, align 8
  %20 = icmp sgt i32 %3, 3
  br i1 %20, label %.lr.ph.preheader, label %._crit_edge

.lr.ph.preheader:                                 ; preds = %10
  %21 = tail call i32 @llvm.smax.i32(i32 %9, i32 2)
  %smax = add nsw i32 %21, -1
  %wide.trip.count = zext nneg i32 %smax to i64
  br label %.lr.ph

.lr.ph:                                           ; preds = %.lr.ph.preheader, %.lr.ph
  %indvars.iv59 = phi i64 [ 2, %.lr.ph.preheader ], [ %indvars.iv.next60, %.lr.ph ]
  %indvars.iv = phi i64 [ 0, %.lr.ph.preheader ], [ %indvars.iv.next, %.lr.ph ]
  %22 = getelementptr inbounds nuw %struct.DistanceValue, ptr %2, i64 %indvars.iv
  %23 = load i32, ptr %22, align 8
  %24 = sext i32 %23 to i64
  %25 = getelementptr inbounds %struct.ExpandedRange, ptr %0, i64 %24, i32 1
  %26 = load i64, ptr %25, align 8
  %27 = or disjoint i64 %indvars.iv59, 1
  %28 = getelementptr inbounds nuw i64, ptr %14, i64 %indvars.iv59
  store i64 %26, ptr %28, align 8
  %29 = add i32 %23, 1
  %30 = sext i32 %29 to i64
  %31 = getelementptr inbounds %struct.ExpandedRange, ptr %0, i64 %30
  %32 = load i64, ptr %31, align 8
  %indvars.iv.next60 = add nuw nsw i64 %indvars.iv59, 2
  %33 = getelementptr inbounds nuw i64, ptr %14, i64 %27
  store i64 %32, ptr %33, align 8
  %indvars.iv.next = add nuw nsw i64 %indvars.iv, 1
  %exitcond.not = icmp eq i64 %indvars.iv.next, %wide.trip.count
  br i1 %exitcond.not, label %._crit_edge.loopexit, label %.lr.ph, !llvm.loop !25

._crit_edge.loopexit:                             ; preds = %.lr.ph
  %34 = trunc nuw nsw i64 %indvars.iv.next60 to i32
  br label %._crit_edge

._crit_edge:                                      ; preds = %._crit_edge.loopexit, %10
  %.049.lcssa = phi i32 [ 2, %10 ], [ %34, %._crit_edge.loopexit ]
  %35 = sext i32 %.049.lcssa to i64
  call void @qsort_arg(ptr noundef nonnull %14, i64 noundef %35, i64 noundef 8, ptr noundef nonnull @compare_values, ptr noundef nonnull %7) #12
  %36 = ashr exact i32 %.049.lcssa, 1
  %37 = icmp sgt i32 %36, 0
  br i1 %37, label %.lr.ph57.preheader, label %.loopexit

.lr.ph57.preheader:                               ; preds = %._crit_edge
  %wide.trip.count67 = zext nneg i32 %36 to i64
  br label %.lr.ph57

.lr.ph57:                                         ; preds = %.lr.ph57.preheader, %compare_values.exit
  %indvars.iv64 = phi i64 [ 0, %.lr.ph57.preheader ], [ %indvars.iv.next65, %compare_values.exit ]
  %38 = shl nuw i64 %indvars.iv64, 1
  %39 = getelementptr inbounds i64, ptr %14, i64 %38
  %40 = load i64, ptr %39, align 8
  %41 = getelementptr inbounds nuw %struct.ExpandedRange, ptr %0, i64 %indvars.iv64
  store i64 %40, ptr %41, align 8
  %42 = or disjoint i64 %38, 1
  %43 = getelementptr inbounds i64, ptr %14, i64 %42
  %44 = load i64, ptr %43, align 8
  %45 = getelementptr inbounds nuw i8, ptr %41, i64 8
  store i64 %44, ptr %45, align 8
  %46 = load ptr, ptr %7, align 8
  %47 = load i32, ptr %11, align 8
  %48 = load i64, ptr %39, align 8
  %49 = call i64 @FunctionCall2Coll(ptr noundef %46, i32 noundef %47, i64 noundef %48, i64 noundef %44) #12
  %.not.i = icmp eq i64 %49, 0
  br i1 %.not.i, label %50, label %compare_values.exit

50:                                               ; preds = %.lr.ph57
  %51 = load ptr, ptr %7, align 8
  %52 = load i32, ptr %11, align 8
  %53 = load i64, ptr %43, align 8
  %54 = load i64, ptr %39, align 8
  %55 = call i64 @FunctionCall2Coll(ptr noundef %51, i32 noundef %52, i64 noundef %53, i64 noundef %54) #12
  %.not13.i.not = icmp eq i64 %55, 0
  %56 = zext i1 %.not13.i.not to i8
  br label %compare_values.exit

compare_values.exit:                              ; preds = %.lr.ph57, %50
  %.0.i = phi i8 [ 0, %.lr.ph57 ], [ %56, %50 ]
  %57 = getelementptr inbounds nuw i8, ptr %41, i64 16
  store i8 %.0.i, ptr %57, align 8
  %indvars.iv.next65 = add nuw nsw i64 %indvars.iv64, 1
  %exitcond68.not = icmp eq i64 %indvars.iv.next65, %wide.trip.count67
  br i1 %exitcond68.not, label %.loopexit, label %.lr.ph57, !llvm.loop !26

.loopexit:                                        ; preds = %compare_values.exit, %._crit_edge, %6
  %.0 = phi i32 [ %1, %6 ], [ %36, %._crit_edge ], [ %36, %compare_values.exit ]
  call void @llvm.lifetime.end.p0(i64 16, ptr nonnull %7) #12
  ret i32 %.0
}